; Function Attrs: mustprogress nofree norecurse nosync nounwind willreturn memory(write, argmem: readwrite, inaccessiblemem: none) uwtable
define internal void @set_pixel3_16(ptr noundef readonly captures(none) %0, i32 noundef %1, i32 noundef %2, i32 noundef %3, i32 noundef %4, i32 noundef %5, i32 %6) #4 {
  %8 = trunc i32 %3 to i16
  %9 = load ptr, ptr %0, align 8, !tbaa !65
  %10 = getelementptr inbounds nuw i8, ptr %0, i64 64
  %11 = load i32, ptr %10, align 8, !tbaa !31
  %12 = mul nsw i32 %11, %2
  %13 = sext i32 %12 to i64
  %14 = getelementptr inbounds i8, ptr %9, i64 %13
  %15 = shl nsw i32 %1, 1
  %16 = sext i32 %15 to i64
  %17 = getelementptr inbounds i8, ptr %14, i64 %16
  store i16 %8, ptr %17, align 1, !tbaa !66
  %18 = trunc i32 %4 to i16
  %19 = getelementptr inbounds nuw i8, ptr %0, i64 8
  %20 = load ptr, ptr %19, align 8, !tbaa !65
  %21 = getelementptr inbounds nuw i8, ptr %0, i64 68
  %22 = load i32, ptr %21, align 4, !tbaa !31
  %23 = mul nsw i32 %22, %2
  %24 = sext i32 %23 to i64
  %25 = getelementptr inbounds i8, ptr %20, i64 %24
  %26 = getelementptr inbounds i8, ptr %25, i64 %16
  store i16 %18, ptr %26, align 1, !tbaa !66
  %27 = trunc i32 %5 to i16
  %28 = getelementptr inbounds nuw i8, ptr %0, i64 16
  %29 = load ptr, ptr %28, align 8, !tbaa !65
  %30 = getelementptr inbounds nuw i8, ptr %0, i64 72
  %31 = load i32, ptr %30, align 8, !tbaa !31
  %32 = mul nsw i32 %31, %2
  %33 = sext i32 %32 to i64
  %34 = getelementptr inbounds i8, ptr %29, i64 %33
  %35 = getelementptr inbounds i8, ptr %34, i64 %16
  store i16 %27, ptr %35, align 1, !tbaa !66
  ret void
}